target datalayout = "e-m:e-p270:32:32-p271:32:32-p272:64:64-i64:64-i128:128-f80:128-n8:16:32:64-S128"
target triple = "x86_64-pc-linux-gnu"

%"class.llvm::MVT" = type { i16 }
%"class.llvm::TypeSize" = type { %"class.llvm::details::FixedOrScalableQuantity.base", [7 x i8] }
%"class.llvm::details::FixedOrScalableQuantity.base" = type <{ i64, i8 }>

; Function Attrs: mustprogress nounwind uwtable
define linkonce_odr hidden { i64, i8 } @_ZNK4llvm3MVT13getSizeInBitsEv(ptr noundef nonnull align 2 dereferenceable(2) %0) #0 comdat align 2 {
  %2 = alloca %"class.llvm::TypeSize", align 8
  %3 = alloca ptr, align 8
  store ptr %0, ptr %3, align 8
  %4 = load ptr, ptr %3, align 8
  %5 = getelementptr inbounds nuw %"class.llvm::MVT", ptr %4, i32 0, i32 0
  %6 = load i16, ptr %5, align 2
  %7 = zext i16 %6 to i32
  switch i32 %7, label %14 [
    i32 0, label %8
    i32 1, label %9
    i32 510, label %10
    i32 506, label %11
    i32 509, label %11
    i32 508, label %11
    i32 507, label %11
    i32 511, label %11
    i32 504, label %12
    i32 505, label %13
  ]

8:                                                ; preds = %1
  unreachable

9:                                                ; preds = %1
  unreachable

10:                                               ; preds = %1
  unreachable

11:                                               ; preds = %1, %1, %1, %1, %1
  unreachable

12:                                               ; preds = %1
  unreachable

13:                                               ; preds = %1
  unreachable

14:                                               ; preds = %1
  %15 = getelementptr inbounds nuw %"class.llvm::MVT", ptr %4, i32 0, i32 0
  %16 = load i16, ptr %15, align 2
  %17 = zext i16 %16 to i32
  %18 = sub nsw i32 %17, 1
  %19 = sext i32 %18 to i64
  %20 = getelementptr inbounds [240 x %"class.llvm::TypeSize"], ptr @_ZZNK4llvm3MVT13getSizeInBitsEvE9SizeTable, i64 0, i64 %19
  call void @llvm.memcpy.p0.p0.i64(ptr align 8 %2, ptr align 16 %20, i64 16, i1 false)
  %21 = load { i64, i8 }, ptr %2, align 8
  ret { i64, i8 } %21
}

; Function Attrs: mustprogress nounwind uwtable
define internal i16 @_ZL28getPromotedVectorElementTypeRKN4llvm14TargetLoweringENS_3MVTES3_(ptr noundef nonnull align 8 dereferenceable(408123) %0, i16 %1, i16 %2) #0 {
  %4 = alloca %"class.llvm::MVT", align 2
  %5 = alloca %"class.llvm::MVT", align 2
  %6 = alloca %"class.llvm::MVT", align 2
  %7 = alloca ptr, align 8
  %8 = alloca i32, align 4
  %9 = alloca %"class.llvm::TypeSize", align 8
  %10 = alloca { i64, i8 }, align 8
  %11 = alloca %"class.llvm::TypeSize", align 8
  %12 = alloca { i64, i8 }, align 8
  %13 = alloca %"class.llvm::MVT", align 2
  %14 = getelementptr inbounds nuw %"class.llvm::MVT", ptr %5, i32 0, i32 0
  store i16 %1, ptr %14, align 2
  %15 = getelementptr inbounds nuw %"class.llvm::MVT", ptr %6, i32 0, i32 0
  store i16 %2, ptr %15, align 2
  store ptr %0, ptr %7, align 8
  %16 = call { i64, i8 } @_ZNK4llvm3MVT13getSizeInBitsEv(ptr noundef nonnull align 2 dereferenceable(2) %5)
  store { i64, i8 } %16, ptr %10, align 8
  call void @llvm.memcpy.p0.p0.i64(ptr align 8 %9, ptr align 8 %10, i64 9, i1 false)
  %17 = call noundef i64 @_ZNK4llvm8TypeSizecvmEv(ptr noundef nonnull align 8 dereferenceable(9) %9)
  %18 = call { i64, i8 } @_ZNK4llvm3MVT13getSizeInBitsEv(ptr noundef nonnull align 2 dereferenceable(2) %6)
  store { i64, i8 } %18, ptr %12, align 8
  call void @llvm.memcpy.p0.p0.i64(ptr align 8 %11, ptr align 8 %12, i64 9, i1 false)
  %19 = call noundef i64 @_ZNK4llvm8TypeSizecvmEv(ptr noundef nonnull align 8 dereferenceable(9) %11)
  %20 = udiv i64 %17, %19
  %21 = trunc i64 %20 to i32
  store i32 %21, ptr %8, align 4
  %22 = load i32, ptr %8, align 4
  %23 = icmp eq i32 %22, 1
  br i1 %23, label %24, label %25

24:                                               ; preds = %3
  call void @llvm.memcpy.p0.p0.i64(ptr align 2 %4, ptr align 2 %6, i64 2, i1 false)
  br label %31

25:                                               ; preds = %3
  call void @llvm.memcpy.p0.p0.i64(ptr align 2 %13, ptr align 2 %6, i64 2, i1 false)
  %26 = load i32, ptr %8, align 4
  %27 = getelementptr inbounds nuw %"class.llvm::MVT", ptr %13, i32 0, i32 0
  %28 = load i16, ptr %27, align 2
  %29 = call i16 @_ZN4llvm3MVT11getVectorVTES0_j(i16 %28, i32 noundef %26)
  %30 = getelementptr inbounds nuw %"class.llvm::MVT", ptr %4, i32 0, i32 0
  store i16 %29, ptr %30, align 2
  br label %31

31:                                               ; preds = %25, %24
  %32 = getelementptr inbounds nuw %"class.llvm::MVT", ptr %4, i32 0, i32 0
  %33 = load i16, ptr %32, align 2
  ret i16 %33
}