; Function Attrs: mustprogress nounwind uwtable
define internal fastcc i16 @_ZL28getPromotedVectorElementTypeRKN4llvm14TargetLoweringENS_3MVTES3_(i16 %0, i16 %1) unnamed_addr #0 {
  %3 = alloca %"class.llvm::TypeSize", align 8
  %4 = alloca %"class.llvm::TypeSize", align 8
  %5 = zext i16 %0 to i64
  %6 = add nsw i64 %5, -1
  %7 = getelementptr inbounds [240 x %"class.llvm::TypeSize"], ptr @_ZZNK4llvm3MVT13getSizeInBitsEvE9SizeTable, i64 0, i64 %6
  %.sroa.0.0.copyload.i = load i64, ptr %7, align 16
  %.sroa.2.0..sroa_idx.i = getelementptr inbounds nuw i8, ptr %7, i64 8
  %.sroa.2.0.copyload.i = load i8, ptr %.sroa.2.0..sroa_idx.i, align 8
  store i64 %.sroa.0.0.copyload.i, ptr %3, align 8
  %.sroa.25.0..sroa_idx = getelementptr inbounds nuw i8, ptr %3, i64 8
  store i8 %.sroa.2.0.copyload.i, ptr %.sroa.25.0..sroa_idx, align 8
  %8 = call noundef i64 @_ZNK4llvm8TypeSizecvmEv(ptr noundef nonnull align 8 dereferenceable(9) %3) #18
  %9 = zext i16 %1 to i64
  %10 = add nsw i64 %9, -1
  %11 = getelementptr inbounds [240 x %"class.llvm::TypeSize"], ptr @_ZZNK4llvm3MVT13getSizeInBitsEvE9SizeTable, i64 0, i64 %10
  %.sroa.0.0.copyload.i8 = load i64, ptr %11, align 16
  %.sroa.2.0..sroa_idx.i9 = getelementptr inbounds nuw i8, ptr %11, i64 8
  %.sroa.2.0.copyload.i10 = load i8, ptr %.sroa.2.0..sroa_idx.i9, align 8
  store i64 %.sroa.0.0.copyload.i8, ptr %4, align 8
  %.sroa.2.0..sroa_idx = getelementptr inbounds nuw i8, ptr %4, i64 8
  store i8 %.sroa.2.0.copyload.i10, ptr %.sroa.2.0..sroa_idx, align 8
  %12 = call noundef i64 @_ZNK4llvm8TypeSizecvmEv(ptr noundef nonnull align 8 dereferenceable(9) %4) #18
  %13 = udiv i64 %8, %12
  %14 = trunc i64 %13 to i32
  %15 = icmp eq i32 %14, 1
  br i1 %15, label %18, label %16

16:                                               ; preds = %2
  %17 = call i16 @_ZN4llvm3MVT11getVectorVTES0_j(i16 %1, i32 noundef %14)
  br label %18

18:                                               ; preds = %2, %16
  %.sroa.07.0 = phi i16 [ %17, %16 ], [ %1, %2 ]
  ret i16 %.sroa.07.0
}